target datalayout = "e-m:e-p270:32:32-p271:32:32-p272:64:64-i64:64-i128:128-f80:128-n8:16:32:64-S128"
target triple = "x86_64-pc-linux-gnu"

%struct.PlanState = type { i32, ptr, ptr, ptr, ptr, ptr, ptr, ptr, ptr, ptr, ptr, ptr, ptr, ptr, ptr, ptr, ptr, ptr, i8, ptr, ptr, ptr, ptr, ptr, i8, i8, i8, i8, i8, i8, i8, i8 }
%struct.BitmapHeapScanState = type { %struct.ScanState, ptr, ptr, i32, %struct.BitmapHeapScanInstrumentation, %struct.TBMIterator, i32, i32, i32, i8, ptr, ptr, i8, i32, i32 }
%struct.ScanState = type { %struct.PlanState, ptr, ptr, ptr }
%struct.BitmapHeapScanInstrumentation = type { i64, i64 }
%struct.TBMIterator = type { i8, %union.anon }
%union.anon = type { ptr }
%struct.TableScanDescData = type { ptr, ptr, i32, ptr, %union.anon.0, i32, ptr }
%union.anon.0 = type { %struct.TBMIterator }
%struct.RelationData = type { %struct.RelFileLocator, ptr, i32, i32, i8, i8, i8, i8, i8, i32, i32, i32, i32, ptr, ptr, i32, %struct.LockInfoData, ptr, ptr, ptr, ptr, ptr, i8, ptr, ptr, ptr, ptr, ptr, ptr, i32, ptr, i8, ptr, ptr, i32, i8, i32, ptr, i8, ptr, ptr, ptr, ptr, ptr, ptr, ptr, i32, ptr, ptr, ptr, ptr, ptr, ptr, ptr, ptr, ptr, ptr, ptr, ptr, ptr, ptr, ptr, ptr, ptr, ptr, ptr, i32, i8, ptr }
%struct.RelFileLocator = type { i32, i32, i32 }
%struct.LockInfoData = type { %struct.LockRelId }
%struct.LockRelId = type { i32, i32 }
%struct.TableAmRoutine = type { i32, ptr, ptr, ptr, ptr, ptr, ptr, ptr, ptr, ptr, ptr, ptr, ptr, ptr, ptr, ptr, ptr, ptr, ptr, ptr, ptr, ptr, ptr, ptr, ptr, ptr, ptr, ptr, ptr, ptr, ptr, ptr, ptr, ptr, ptr, ptr, ptr, ptr, ptr, ptr, ptr, ptr, ptr, ptr, ptr, ptr }

; Function Attrs: inlinehint nounwind uwtable
define internal void @table_rescan(ptr noundef %0, ptr noundef %1) #2 {
  %3 = alloca ptr, align 8
  %4 = alloca ptr, align 8
  store ptr %0, ptr %3, align 8
  store ptr %1, ptr %4, align 8
  %5 = load ptr, ptr %3, align 8
  %6 = getelementptr inbounds nuw %struct.TableScanDescData, ptr %5, i32 0, i32 0
  %7 = load ptr, ptr %6, align 8
  %8 = getelementptr inbounds nuw %struct.RelationData, ptr %7, i32 0, i32 47
  %9 = load ptr, ptr %8, align 8
  %10 = getelementptr inbounds nuw %struct.TableAmRoutine, ptr %9, i32 0, i32 4
  %11 = load ptr, ptr %10, align 8
  %12 = load ptr, ptr %3, align 8
  %13 = load ptr, ptr %4, align 8
  call void %11(ptr noundef %12, ptr noundef %13, i1 noundef zeroext false, i1 noundef zeroext false, i1 noundef zeroext false, i1 noundef zeroext false)
  ret void
}

; Function Attrs: inlinehint nounwind uwtable
define internal zeroext i1 @tbm_exhausted(ptr noundef %0) #2 {
  %2 = alloca ptr, align 8
  store ptr %0, ptr %2, align 8
  %3 = load ptr, ptr %2, align 8
  %4 = getelementptr inbounds nuw %struct.TBMIterator, ptr %3, i32 0, i32 1
  %5 = load ptr, ptr %4, align 8
  %6 = icmp ne ptr %5, null
  %7 = xor i1 %6, true
  ret i1 %7
}

; Function Attrs: nounwind uwtable
define dso_local void @ExecReScanBitmapHeapScan(ptr noundef %0) #0 {
  %2 = alloca ptr, align 8
  %3 = alloca ptr, align 8
  %4 = alloca ptr, align 8
  store ptr %0, ptr %2, align 8
  call void @llvm.lifetime.start.p0(i64 8, ptr %3) #8
  %5 = load ptr, ptr %2, align 8
  %6 = getelementptr inbounds nuw %struct.PlanState, ptr %5, i32 0, i32 9
  %7 = load ptr, ptr %6, align 8
  store ptr %7, ptr %3, align 8
  call void @llvm.lifetime.start.p0(i64 8, ptr %4) #8
  %8 = load ptr, ptr %2, align 8
  %9 = getelementptr inbounds nuw %struct.BitmapHeapScanState, ptr %8, i32 0, i32 0
  %10 = getelementptr inbounds nuw %struct.ScanState, ptr %9, i32 0, i32 2
  %11 = load ptr, ptr %10, align 8
  store ptr %11, ptr %4, align 8
  %12 = load ptr, ptr %4, align 8
  %13 = icmp ne ptr %12, null
  br i1 %13, label %14, label %26

14:                                               ; preds = %1
  %15 = load ptr, ptr %4, align 8
  %16 = getelementptr inbounds nuw %struct.TableScanDescData, ptr %15, i32 0, i32 4
  %17 = call zeroext i1 @tbm_exhausted(ptr noundef %16)
  br i1 %17, label %21, label %18

18:                                               ; preds = %14
  %19 = load ptr, ptr %4, align 8
  %20 = getelementptr inbounds nuw %struct.TableScanDescData, ptr %19, i32 0, i32 4
  call void @tbm_end_iterate(ptr noundef %20)
  br label %21

21:                                               ; preds = %18, %14
  %22 = load ptr, ptr %2, align 8
  %23 = getelementptr inbounds nuw %struct.BitmapHeapScanState, ptr %22, i32 0, i32 0
  %24 = getelementptr inbounds nuw %struct.ScanState, ptr %23, i32 0, i32 2
  %25 = load ptr, ptr %24, align 8
  call void @table_rescan(ptr noundef %25, ptr noundef null)
  br label %26

26:                                               ; preds = %21, %1
  %27 = load ptr, ptr %2, align 8
  %28 = getelementptr inbounds nuw %struct.BitmapHeapScanState, ptr %27, i32 0, i32 5
  %29 = call zeroext i1 @tbm_exhausted(ptr noundef %28)
  br i1 %29, label %33, label %30

30:                                               ; preds = %26
  %31 = load ptr, ptr %2, align 8
  %32 = getelementptr inbounds nuw %struct.BitmapHeapScanState, ptr %31, i32 0, i32 5
  call void @tbm_end_iterate(ptr noundef %32)
  br label %33

33:                                               ; preds = %30, %26
  %34 = load ptr, ptr %2, align 8
  %35 = getelementptr inbounds nuw %struct.BitmapHeapScanState, ptr %34, i32 0, i32 2
  %36 = load ptr, ptr %35, align 8
  %37 = icmp ne ptr %36, null
  br i1 %37, label %38, label %42

38:                                               ; preds = %33
  %39 = load ptr, ptr %2, align 8
  %40 = getelementptr inbounds nuw %struct.BitmapHeapScanState, ptr %39, i32 0, i32 2
  %41 = load ptr, ptr %40, align 8
  call void @tbm_free(ptr noundef %41)
  br label %42

42:                                               ; preds = %38, %33
  %43 = load ptr, ptr %2, align 8
  %44 = getelementptr inbounds nuw %struct.BitmapHeapScanState, ptr %43, i32 0, i32 3
  %45 = load i32, ptr %44, align 8
  %46 = icmp ne i32 %45, 0
  br i1 %46, label %47, label %51

47:                                               ; preds = %42
  %48 = load ptr, ptr %2, align 8
  %49 = getelementptr inbounds nuw %struct.BitmapHeapScanState, ptr %48, i32 0, i32 3
  %50 = load i32, ptr %49, align 8
  call void @ReleaseBuffer(i32 noundef %50)
  br label %51

51:                                               ; preds = %47, %42
  %52 = load ptr, ptr %2, align 8
  %53 = getelementptr inbounds nuw %struct.BitmapHeapScanState, ptr %52, i32 0, i32 2
  store ptr null, ptr %53, align 8
  %54 = load ptr, ptr %2, align 8
  %55 = getelementptr inbounds nuw %struct.BitmapHeapScanState, ptr %54, i32 0, i32 9
  store i8 0, ptr %55, align 4
  %56 = load ptr, ptr %2, align 8
  %57 = getelementptr inbounds nuw %struct.BitmapHeapScanState, ptr %56, i32 0, i32 3
  store i32 0, ptr %57, align 8
  %58 = load ptr, ptr %2, align 8
  %59 = getelementptr inbounds nuw %struct.BitmapHeapScanState, ptr %58, i32 0, i32 12
  store i8 1, ptr %59, align 8
  %60 = load ptr, ptr %2, align 8
  %61 = getelementptr inbounds nuw %struct.BitmapHeapScanState, ptr %60, i32 0, i32 13
  store i32 -1, ptr %61, align 4
  %62 = load ptr, ptr %2, align 8
  %63 = getelementptr inbounds nuw %struct.BitmapHeapScanState, ptr %62, i32 0, i32 14
  store i32 -1, ptr %63, align 8
  %64 = load ptr, ptr %2, align 8
  %65 = getelementptr inbounds nuw %struct.BitmapHeapScanState, ptr %64, i32 0, i32 6
  store i32 0, ptr %65, align 8
  %66 = load ptr, ptr %2, align 8
  %67 = getelementptr inbounds nuw %struct.BitmapHeapScanState, ptr %66, i32 0, i32 7
  store i32 -1, ptr %67, align 4
  %68 = load ptr, ptr %2, align 8
  %69 = getelementptr inbounds nuw %struct.BitmapHeapScanState, ptr %68, i32 0, i32 0
  call void @ExecScanReScan(ptr noundef %69)
  %70 = load ptr, ptr %3, align 8
  %71 = getelementptr inbounds nuw %struct.PlanState, ptr %70, i32 0, i32 13
  %72 = load ptr, ptr %71, align 8
  %73 = icmp eq ptr %72, null
  br i1 %73, label %74, label %76

74:                                               ; preds = %51
  %75 = load ptr, ptr %3, align 8
  call void @ExecReScan(ptr noundef %75)
  br label %76

76:                                               ; preds = %74, %51
  call void @llvm.lifetime.end.p0(i64 8, ptr %4) #8
  call void @llvm.lifetime.end.p0(i64 8, ptr %3) #8
  ret void
}