; Function Attrs: nounwind uwtable
define dso_local void @ExecReScanBitmapHeapScan(ptr noundef %0) local_unnamed_addr #0 {
  %2 = getelementptr inbounds nuw i8, ptr %0, i64 72
  %3 = load ptr, ptr %2, align 8
  %4 = getelementptr inbounds nuw i8, ptr %0, i64 208
  %5 = load ptr, ptr %4, align 8
  %.not = icmp eq ptr %5, null
  br i1 %.not, label %17, label %6

6:                                                ; preds = %1
  %7 = getelementptr i8, ptr %5, i64 40
  %.val = load ptr, ptr %7, align 8
  %.not.i = icmp eq ptr %.val, null
  br i1 %.not.i, label %10, label %8

8:                                                ; preds = %6
  %9 = getelementptr inbounds nuw i8, ptr %5, i64 32
  tail call void @tbm_end_iterate(ptr noundef nonnull %9) #7
  %.pre = load ptr, ptr %4, align 8
  br label %10

10:                                               ; preds = %8, %6
  %11 = phi ptr [ %.pre, %8 ], [ %5, %6 ]
  %12 = load ptr, ptr %11, align 8
  %13 = getelementptr inbounds nuw i8, ptr %12, i64 320
  %14 = load ptr, ptr %13, align 8
  %15 = getelementptr inbounds nuw i8, ptr %14, i64 32
  %16 = load ptr, ptr %15, align 8
  tail call void %16(ptr noundef nonnull %11, ptr noundef null, i1 noundef zeroext false, i1 noundef zeroext false, i1 noundef zeroext false, i1 noundef zeroext false) #7
  br label %17

17:                                               ; preds = %10, %1
  %18 = getelementptr i8, ptr %0, i64 272
  %.val27 = load ptr, ptr %18, align 8
  %.not.i28 = icmp eq ptr %.val27, null
  br i1 %.not.i28, label %21, label %19

19:                                               ; preds = %17
  %20 = getelementptr inbounds nuw i8, ptr %0, i64 264
  tail call void @tbm_end_iterate(ptr noundef nonnull %20) #7
  br label %21

21:                                               ; preds = %19, %17
  %22 = getelementptr inbounds nuw i8, ptr %0, i64 232
  %23 = load ptr, ptr %22, align 8
  %.not25 = icmp eq ptr %23, null
  br i1 %.not25, label %25, label %24

24:                                               ; preds = %21
  tail call void @tbm_free(ptr noundef nonnull %23) #7
  br label %25

25:                                               ; preds = %24, %21
  %26 = getelementptr inbounds nuw i8, ptr %0, i64 240
  %27 = load i32, ptr %26, align 8
  %.not26 = icmp eq i32 %27, 0
  br i1 %.not26, label %29, label %28

28:                                               ; preds = %25
  tail call void @ReleaseBuffer(i32 noundef %27) #7
  br label %29

29:                                               ; preds = %28, %25
  store ptr null, ptr %22, align 8
  %30 = getelementptr inbounds nuw i8, ptr %0, i64 292
  store i8 0, ptr %30, align 4
  store i32 0, ptr %26, align 8
  %31 = getelementptr inbounds nuw i8, ptr %0, i64 312
  store i8 1, ptr %31, align 8
  %32 = getelementptr inbounds nuw i8, ptr %0, i64 316
  store i32 -1, ptr %32, align 4
  %33 = getelementptr inbounds nuw i8, ptr %0, i64 320
  store i32 -1, ptr %33, align 8
  %34 = getelementptr inbounds nuw i8, ptr %0, i64 280
  store i32 0, ptr %34, align 8
  %35 = getelementptr inbounds nuw i8, ptr %0, i64 284
  store i32 -1, ptr %35, align 4
  tail call void @ExecScanReScan(ptr noundef nonnull %0) #7
  %36 = getelementptr inbounds nuw i8, ptr %3, i64 104
  %37 = load ptr, ptr %36, align 8
  %38 = icmp eq ptr %37, null
  br i1 %38, label %39, label %40

39:                                               ; preds = %29
  tail call void @ExecReScan(ptr noundef nonnull %3) #7
  br label %40

40:                                               ; preds = %39, %29
  ret void
}